Certificate:
    Data:
        Version: 3 (0x2)
        Serial Number:
            39:9e:52:9b:fd:f7:b6:b0:8c:32:b4:18:76:e3:e0:07:35:82:ef:19
        Signature Algorithm: md5WithRSAEncryption
        Issuer: C=AU, ST=Some-State, O=Internet Widgits Pty Ltd, CN=fina
        Validity
            Not Before: Apr  8 19:27:36 2021 GMT
            Not After : Apr  8 19:27:36 2022 GMT
        Subject: C=AU, ST=Some-State, O=Internet Widgits Pty Ltd, CN=name
        Subject Public Key Info:
            Public Key Algorithm: rsaEncryption
                RSA Public-Key: (1024 bit)
                Modulus:
                    00:d4:a6:97:66:37:b5:44:5d:5a:be:dd:0b:96:50:
                    b1:12:45:92:db:16:88:f0:e0:98:83:b4:e3:47:07:
                    40:73:83:cd:33:ae:58:68:e8:30:2f:91:c1:bd:70:
                    49:63:af:2c:01:c3:c1:17:f8:bf:48:c6:9a:41:1f:
                    7f:52:85:6b:df:b7:57:a5:ad:82:28:17:2d:3b:60:
                    52:9a:28:df:01:ee:2b:c5:35:92:07:05:8e:b1:83:
                    f9:59:67:24:8d:4f:95:fb:5e:6a:28:c4:e5:9d:2b:
                    72:01:4e:f7:4b:ef:12:c8:27:c4:00:b6:39:df:c2:
                    3c:8a:fc:52:6c:e5:33:8f:09
                Exponent: 65537 (0x10001)
        X509v3 extensions:
            X509v3 Basic Constraints: 
                CA:FALSE
            Netscape Comment: 
                OpenSSL Generated Certificate
            X509v3 Subject Key Identifier: 
                0B:CF:D0:A0:81:2D:2C:B4:D1:12:9B:FE:91:8F:26:83:FA:9D:6F:D5
            X509v3 Authority Key Identifier: 
                keyid:2F:F9:BC:E0:65:3A:7B:8B:E0:56:28:8E:91:3B:73:04:81:30:35:5C
                DirName:/C=AU/ST=Some-State/O=Internet Widgits Pty Ltd/CN=fina
                serial:39:9E:52:9B:FD:F7:B6:B0:8C:32:B4:18:76:E3:E0:07:35:82:EF:18

    Signature Algorithm: md5WithRSAEncryption
         67:e1:4b:7b:3c:02:1e:85:2a:01:d0:73:ac:35:72:dd:0d:0e:
         6e:38:a1:59:09:04:05:f2:5f:83:9f:7a:32:8e:07:a6:9f:b0:
         03:7e:ce:e8:6a:21:72:2d:6e:06:d2:b9:72:99:0a:f8:f8:84:
         c2:77:73:53:10:33:f8:0d:0f:62:66:82:80:c7:5b:ba:2a:d8:
         23:cc:72:56:cd:29:77:7c:e9:d9:41:4f:42:d9:5e:ae:3a:fa:
         da:a0:42:3a:2d:0a:9a:a4:c8:54:da:cb:7c:5e:b8:86:dc:8f:
         94:d7:3f:7d:3c:b4:a2:99:39:d4:d6:90:3a:77:df:ee:51:bb:
         e6:8f
-----BEGIN CERTIFICATE-----
MIIDITCCAoqgAwIBAgIUOZ5Sm/33trCMMrQYduPgBzWC7xkwDQYJKoZIhvcNAQEE
BQAwVDELMAkGA1UEBhMCQVUxEzARBgNVBAgTClNvbWUtU3RhdGUxITAfBgNVBAoT
GEludGVybmV0IFdpZGdpdHMgUHR5IEx0ZDENMAsGA1UEAxMEZmluYTAeFw0yMTA0
MDgxOTI3MzZaFw0yMjA0MDgxOTI3MzZaMFQxCzAJBgNVBAYTAkFVMRMwEQYDVQQI
EwpTb21lLVN0YXRlMSEwHwYDVQQKExhJbnRlcm5ldCBXaWRnaXRzIFB0eSBMdGQx
DTALBgNVBAMTBG5hbWUwgZ8wDQYJKoZIhvcNAQEBBQADgY0AMIGJAoGBANSml2Y3
tURdWr7dC5ZQsRJFktsWiPDgmIO040cHQHODzTOuWGjoMC+Rwb1wSWOvLAHDwRf4
v0jGmkEff1KFa9+3V6WtgigXLTtgUpoo3wHuK8U1kgcFjrGD+VlnJI1PlfteaijE
5Z0rcgFO90vvEsgnxAC2Od/CPIr8UmzlM48JAgMBAAGjge8wgewwCQYDVR0TBAIw
ADAsBglghkgBhvhCAQ0EHxYdT3BlblNTTCBHZW5lcmF0ZWQgQ2VydGlmaWNhdGUw
HQYDVR0OBBYEFAvP0KCBLSy00RKb/pGPJoP6nW/VMIGRBgNVHSMEgYkwgYaAFC/5
vOBlOnuL4FYojpE7cwSBMDVcoVikVjBUMQswCQYDVQQGEwJBVTETMBEGA1UECBMK
U29tZS1TdGF0ZTEhMB8GA1UEChMYSW50ZXJuZXQgV2lkZ2l0cyBQdHkgTHRkMQ0w
CwYDVQQDEwRmaW5hghQ5nlKb/fe2sIwytBh24+AHNYLvGDANBgkqhkiG9w0BAQQF
AAOBgQBn4Ut7PAIehSoB0HOsNXLdDQ5uOKFZCQQF8l+Dn3oyjgemn7ADfs7oaiFy
LW4G0rlymQr4+ITCd3NTEDP4DQ9iZoKAx1u6KtgjzHJWzSl3fOnZQU9C2V6uOvra
oEI6LQqapMhU2st8XriG3I+U1z99PLSimTnU1pA6d9/uUbvmjw==
-----END CERTIFICATE-----
